target datalayout = "e-m:e-p270:32:32-p271:32:32-p272:64:64-i64:64-i128:128-f80:128-n8:16:32:64-S128"
target triple = "x86_64-unknown-linux-gnu"

%"struct.hermes::Segment" = type { i64, i64 }
%"struct.hermes::Interval" = type { %"class.llvh::SmallVector" }
%"class.llvh::SmallVector" = type { %"class.llvh::SmallVectorImpl", %"struct.llvh::SmallVectorStorage" }
%"class.llvh::SmallVectorImpl" = type { %"class.llvh::SmallVectorTemplateBase" }
%"class.llvh::SmallVectorTemplateBase" = type { %"class.llvh::SmallVectorTemplateCommon" }
%"class.llvh::SmallVectorTemplateCommon" = type { %"class.llvh::SmallVectorBase" }
%"class.llvh::SmallVectorBase" = type { ptr, i32, i32 }
%"struct.llvh::SmallVectorStorage" = type { [2 x %"struct.llvh::AlignedCharArrayUnion"] }
%"struct.llvh::AlignedCharArrayUnion" = type { %"struct.llvh::AlignedCharArray" }
%"struct.llvh::AlignedCharArray" = type { [16 x i8] }
%"class.hermes::RegisterFile" = type { %"class.llvh::BitVector" }
%"class.llvh::BitVector" = type <{ %"class.llvh::MutableArrayRef", i32, [4 x i8] }>
%"class.llvh::MutableArrayRef" = type { %"class.llvh::ArrayRef" }
%"class.llvh::ArrayRef" = type { ptr, i64 }
%"struct.llvh::AlignedCharArray.7" = type { [8 x i8] }
%"class.llvh::SmallVectorImpl.12" = type { %"class.llvh::SmallVectorTemplateBase.13" }
%"class.llvh::SmallVectorTemplateBase.13" = type { %"class.llvh::SmallVectorTemplateCommon.14" }
%"class.llvh::SmallVectorTemplateCommon.14" = type { %"class.llvh::SmallVectorBase" }
%"struct.llvh::AlignedCharArrayUnion.16" = type { %"struct.llvh::AlignedCharArray.7" }
%"class.hermes::RegisterAllocator" = type { ptr, %"class.llvh::DenseMap", %"class.llvh::DenseMap.8", %"class.llvh::SmallVector.11", %"class.llvh::SmallVector.17", %"class.llvh::DenseMap.24", %"class.hermes::RegisterFile", i32, i64, ptr }
%"class.llvh::DenseMap" = type <{ ptr, i32, i32, i32, [4 x i8] }>
%"class.llvh::DenseMap.8" = type <{ ptr, i32, i32, i32, [4 x i8] }>
%"class.llvh::SmallVector.11" = type { %"class.llvh::SmallVectorImpl.12", %"struct.llvh::SmallVectorStorage.15" }
%"struct.llvh::SmallVectorStorage.15" = type { [32 x %"struct.llvh::AlignedCharArrayUnion.16"] }
%"class.llvh::SmallVector.17" = type { %"class.llvh::SmallVectorImpl.18", %"struct.llvh::SmallVectorStorage.21" }
%"class.llvh::SmallVectorImpl.18" = type { %"class.llvh::SmallVectorTemplateBase.19" }
%"class.llvh::SmallVectorTemplateBase.19" = type { %"class.llvh::SmallVectorTemplateCommon.20" }
%"class.llvh::SmallVectorTemplateCommon.20" = type { %"class.llvh::SmallVectorBase" }
%"struct.llvh::SmallVectorStorage.21" = type { [32 x %"struct.llvh::AlignedCharArrayUnion.22"] }
%"struct.llvh::AlignedCharArrayUnion.22" = type { %"struct.llvh::AlignedCharArray.23" }
%"struct.llvh::AlignedCharArray.23" = type { [48 x i8] }
%"class.llvh::DenseMap.24" = type <{ ptr, i32, i32, i32, [4 x i8] }>
%class.anon.68 = type { ptr }

; Function Attrs: mustprogress nounwind uwtable
define linkonce_odr noundef nonnull align 8 dereferenceable(8) ptr @_ZSt3minImERKT_S2_S2_(ptr noundef nonnull align 8 dereferenceable(8) %__a, ptr noundef nonnull align 8 dereferenceable(8) %__b) #0 comdat {
entry:
  %retval = alloca ptr, align 8
  %__a.addr = alloca ptr, align 8
  %__b.addr = alloca ptr, align 8
  store ptr %__a, ptr %__a.addr, align 8
  store ptr %__b, ptr %__b.addr, align 8
  %0 = load ptr, ptr %__b.addr, align 8
  %1 = load i64, ptr %0, align 8
  %2 = load ptr, ptr %__a.addr, align 8
  %3 = load i64, ptr %2, align 8
  %cmp = icmp ult i64 %1, %3
  br i1 %cmp, label %if.then, label %if.end

if.then:                                          ; preds = %entry
  %4 = load ptr, ptr %__b.addr, align 8
  store ptr %4, ptr %retval, align 8
  br label %return

if.end:                                           ; preds = %entry
  %5 = load ptr, ptr %__a.addr, align 8
  store ptr %5, ptr %retval, align 8
  br label %return

return:                                           ; preds = %if.end, %if.then
  %6 = load ptr, ptr %retval, align 8
  ret ptr %6
}

; Function Attrs: mustprogress nounwind uwtable
define linkonce_odr noundef nonnull align 8 dereferenceable(8) ptr @_ZSt3maxImERKT_S2_S2_(ptr noundef nonnull align 8 dereferenceable(8) %__a, ptr noundef nonnull align 8 dereferenceable(8) %__b) #0 comdat {
entry:
  %retval = alloca ptr, align 8
  %__a.addr = alloca ptr, align 8
  %__b.addr = alloca ptr, align 8
  store ptr %__a, ptr %__a.addr, align 8
  store ptr %__b, ptr %__b.addr, align 8
  %0 = load ptr, ptr %__a.addr, align 8
  %1 = load i64, ptr %0, align 8
  %2 = load ptr, ptr %__b.addr, align 8
  %3 = load i64, ptr %2, align 8
  %cmp = icmp ult i64 %1, %3
  br i1 %cmp, label %if.then, label %if.end

if.then:                                          ; preds = %entry
  %4 = load ptr, ptr %__b.addr, align 8
  store ptr %4, ptr %retval, align 8
  br label %return

if.end:                                           ; preds = %entry
  %5 = load ptr, ptr %__a.addr, align 8
  store ptr %5, ptr %retval, align 8
  br label %return

return:                                           ; preds = %if.end, %if.then
  %6 = load ptr, ptr %retval, align 8
  ret ptr %6
}

; Function Attrs: mustprogress nounwind uwtable
define linkonce_odr hidden noundef i64 @_ZNK4llvh15SmallVectorBase4sizeEv(ptr noundef nonnull align 8 dereferenceable(16) %this) #0 comdat align 2 {
entry:
  %this.addr = alloca ptr, align 8
  store ptr %this, ptr %this.addr, align 8
  %this1 = load ptr, ptr %this.addr, align 8
  %Size = getelementptr inbounds %"class.llvh::SmallVectorBase", ptr %this1, i32 0, i32 1
  %0 = load i32, ptr %Size, align 8
  %conv = zext i32 %0 to i64
  ret i64 %conv
}

; Function Attrs: mustprogress nounwind uwtable
define linkonce_odr hidden noundef i64 @_ZNK6hermes8Interval5startEv(ptr noundef nonnull align 8 dereferenceable(48) %this) #0 comdat align 2 {
entry:
  %this.addr.i.i9 = alloca ptr, align 8
  %this.addr.i10 = alloca ptr, align 8
  %idx.addr.i = alloca i64, align 8
  %this.addr.i.i = alloca ptr, align 8
  %this.addr.i7 = alloca ptr, align 8
  %this.addr.i = alloca ptr, align 8
  %this.addr = alloca ptr, align 8
  %start = alloca i64, align 8
  %__range2 = alloca ptr, align 8
  %__begin2 = alloca ptr, align 8
  %__end2 = alloca ptr, align 8
  %S = alloca ptr, align 8
  store ptr %this, ptr %this.addr, align 8
  %this1 = load ptr, ptr %this.addr, align 8
  %segments_ = getelementptr inbounds %"struct.hermes::Interval", ptr %this1, i32 0, i32 0
  store ptr %segments_, ptr %this.addr.i10, align 8
  store i64 0, ptr %idx.addr.i, align 8
  %this1.i11 = load ptr, ptr %this.addr.i10, align 8
  store ptr %this1.i11, ptr %this.addr.i.i9, align 8
  %this1.i.i12 = load ptr, ptr %this.addr.i.i9, align 8
  %0 = load ptr, ptr %this1.i.i12, align 8
  %1 = load i64, ptr %idx.addr.i, align 8
  %arrayidx.i = getelementptr inbounds %"struct.hermes::Segment", ptr %0, i64 %1
  %start_ = getelementptr inbounds %"struct.hermes::Segment", ptr %arrayidx.i, i32 0, i32 0
  %2 = load i64, ptr %start_, align 8
  store i64 %2, ptr %start, align 8
  %segments_2 = getelementptr inbounds %"struct.hermes::Interval", ptr %this1, i32 0, i32 0
  store ptr %segments_2, ptr %__range2, align 8
  %3 = load ptr, ptr %__range2, align 8
  store ptr %3, ptr %this.addr.i, align 8
  %this1.i = load ptr, ptr %this.addr.i, align 8
  %4 = load ptr, ptr %this1.i, align 8
  store ptr %4, ptr %__begin2, align 8
  %5 = load ptr, ptr %__range2, align 8
  store ptr %5, ptr %this.addr.i7, align 8
  %this1.i8 = load ptr, ptr %this.addr.i7, align 8
  store ptr %this1.i8, ptr %this.addr.i.i, align 8
  %this1.i.i = load ptr, ptr %this.addr.i.i, align 8
  %6 = load ptr, ptr %this1.i.i, align 8
  %call2.i = call noundef i64 @_ZNK4llvh15SmallVectorBase4sizeEv(ptr noundef nonnull align 8 dereferenceable(16) %this1.i8)
  %add.ptr.i = getelementptr inbounds %"struct.hermes::Segment", ptr %6, i64 %call2.i
  store ptr %add.ptr.i, ptr %__end2, align 8
  br label %for.cond

for.cond:                                         ; preds = %for.inc, %entry
  %7 = load ptr, ptr %__begin2, align 8
  %8 = load ptr, ptr %__end2, align 8
  %cmp = icmp ne ptr %7, %8
  br i1 %cmp, label %for.body, label %for.end

for.body:                                         ; preds = %for.cond
  %9 = load ptr, ptr %__begin2, align 8
  store ptr %9, ptr %S, align 8
  %10 = load ptr, ptr %S, align 8
  %start_5 = getelementptr inbounds %"struct.hermes::Segment", ptr %10, i32 0, i32 0
  %call6 = call noundef nonnull align 8 dereferenceable(8) ptr @_ZSt3minImERKT_S2_S2_(ptr noundef nonnull align 8 dereferenceable(8) %start, ptr noundef nonnull align 8 dereferenceable(8) %start_5)
  %11 = load i64, ptr %call6, align 8
  store i64 %11, ptr %start, align 8
  br label %for.inc

for.inc:                                          ; preds = %for.body
  %12 = load ptr, ptr %__begin2, align 8
  %incdec.ptr = getelementptr inbounds %"struct.hermes::Segment", ptr %12, i32 1
  store ptr %incdec.ptr, ptr %__begin2, align 8
  br label %for.cond

for.end:                                          ; preds = %for.cond
  %13 = load i64, ptr %start, align 8
  ret i64 %13
}

; Function Attrs: mustprogress nounwind uwtable
define linkonce_odr hidden noundef i64 @_ZNK6hermes8Interval3endEv(ptr noundef nonnull align 8 dereferenceable(48) %this) #0 comdat align 2 {
entry:
  %this.addr.i.i9 = alloca ptr, align 8
  %this.addr.i10 = alloca ptr, align 8
  %idx.addr.i = alloca i64, align 8
  %this.addr.i.i = alloca ptr, align 8
  %this.addr.i7 = alloca ptr, align 8
  %this.addr.i = alloca ptr, align 8
  %this.addr = alloca ptr, align 8
  %start = alloca i64, align 8
  %__range2 = alloca ptr, align 8
  %__begin2 = alloca ptr, align 8
  %__end2 = alloca ptr, align 8
  %S = alloca ptr, align 8
  store ptr %this, ptr %this.addr, align 8
  %this1 = load ptr, ptr %this.addr, align 8
  %segments_ = getelementptr inbounds %"struct.hermes::Interval", ptr %this1, i32 0, i32 0
  store ptr %segments_, ptr %this.addr.i10, align 8
  store i64 0, ptr %idx.addr.i, align 8
  %this1.i11 = load ptr, ptr %this.addr.i10, align 8
  store ptr %this1.i11, ptr %this.addr.i.i9, align 8
  %this1.i.i12 = load ptr, ptr %this.addr.i.i9, align 8
  %0 = load ptr, ptr %this1.i.i12, align 8
  %1 = load i64, ptr %idx.addr.i, align 8
  %arrayidx.i = getelementptr inbounds %"struct.hermes::Segment", ptr %0, i64 %1
  %end_ = getelementptr inbounds %"struct.hermes::Segment", ptr %arrayidx.i, i32 0, i32 1
  %2 = load i64, ptr %end_, align 8
  store i64 %2, ptr %start, align 8
  %segments_2 = getelementptr inbounds %"struct.hermes::Interval", ptr %this1, i32 0, i32 0
  store ptr %segments_2, ptr %__range2, align 8
  %3 = load ptr, ptr %__range2, align 8
  store ptr %3, ptr %this.addr.i, align 8
  %this1.i = load ptr, ptr %this.addr.i, align 8
  %4 = load ptr, ptr %this1.i, align 8
  store ptr %4, ptr %__begin2, align 8
  %5 = load ptr, ptr %__range2, align 8
  store ptr %5, ptr %this.addr.i7, align 8
  %this1.i8 = load ptr, ptr %this.addr.i7, align 8
  store ptr %this1.i8, ptr %this.addr.i.i, align 8
  %this1.i.i = load ptr, ptr %this.addr.i.i, align 8
  %6 = load ptr, ptr %this1.i.i, align 8
  %call2.i = call noundef i64 @_ZNK4llvh15SmallVectorBase4sizeEv(ptr noundef nonnull align 8 dereferenceable(16) %this1.i8)
  %add.ptr.i = getelementptr inbounds %"struct.hermes::Segment", ptr %6, i64 %call2.i
  store ptr %add.ptr.i, ptr %__end2, align 8
  br label %for.cond

for.cond:                                         ; preds = %for.inc, %entry
  %7 = load ptr, ptr %__begin2, align 8
  %8 = load ptr, ptr %__end2, align 8
  %cmp = icmp ne ptr %7, %8
  br i1 %cmp, label %for.body, label %for.end

for.body:                                         ; preds = %for.cond
  %9 = load ptr, ptr %__begin2, align 8
  store ptr %9, ptr %S, align 8
  %10 = load ptr, ptr %S, align 8
  %end_5 = getelementptr inbounds %"struct.hermes::Segment", ptr %10, i32 0, i32 1
  %call6 = call noundef nonnull align 8 dereferenceable(8) ptr @_ZSt3maxImERKT_S2_S2_(ptr noundef nonnull align 8 dereferenceable(8) %start, ptr noundef nonnull align 8 dereferenceable(8) %end_5)
  %11 = load i64, ptr %call6, align 8
  store i64 %11, ptr %start, align 8
  br label %for.inc

for.inc:                                          ; preds = %for.body
  %12 = load ptr, ptr %__begin2, align 8
  %incdec.ptr = getelementptr inbounds %"struct.hermes::Segment", ptr %12, i32 1
  store ptr %incdec.ptr, ptr %__begin2, align 8
  br label %for.cond

for.end:                                          ; preds = %for.cond
  %13 = load i64, ptr %start, align 8
  ret i64 %13
}

; Function Attrs: mustprogress nounwind uwtable
define internal noundef zeroext i1 @"_ZZN6hermes17RegisterAllocator8allocateEN4llvh8ArrayRefIPNS_10BasicBlockEEEENK3$_0clEjj"(ptr noundef nonnull align 8 dereferenceable(8) %this, i32 noundef %a, i32 noundef %b) #0 align 2 {
entry:
  %this.addr.i24 = alloca ptr, align 8
  %this.addr.i22 = alloca ptr, align 8
  %this.addr.i17 = alloca ptr, align 8
  %idx.addr.i18 = alloca i64, align 8
  %this.addr.i = alloca ptr, align 8
  %idx.addr.i = alloca i64, align 8
  %retval = alloca i1, align 1
  %this.addr = alloca ptr, align 8
  %a.addr = alloca i32, align 4
  %b.addr = alloca i32, align 4
  %aInterval = alloca ptr, align 8
  %bInterval = alloca ptr, align 8
  store ptr %this, ptr %this.addr, align 8
  store i32 %a, ptr %a.addr, align 4
  store i32 %b, ptr %b.addr, align 4
  %this1 = load ptr, ptr %this.addr, align 8
  %0 = getelementptr inbounds %class.anon.68, ptr %this1, i32 0, i32 0
  %1 = load ptr, ptr %0, align 8
  %instructionInterval_ = getelementptr inbounds %"class.hermes::RegisterAllocator", ptr %1, i32 0, i32 4
  %2 = load i32, ptr %a.addr, align 4
  %conv = zext i32 %2 to i64
  store ptr %instructionInterval_, ptr %this.addr.i17, align 8
  store i64 %conv, ptr %idx.addr.i18, align 8
  %this1.i19 = load ptr, ptr %this.addr.i17, align 8
  store ptr %this1.i19, ptr %this.addr.i22, align 8
  %this1.i23 = load ptr, ptr %this.addr.i22, align 8
  %3 = load ptr, ptr %this1.i23, align 8
  %4 = load i64, ptr %idx.addr.i18, align 8
  %arrayidx.i21 = getelementptr inbounds %"struct.hermes::Interval", ptr %3, i64 %4
  store ptr %arrayidx.i21, ptr %aInterval, align 8
  %instructionInterval_2 = getelementptr inbounds %"class.hermes::RegisterAllocator", ptr %1, i32 0, i32 4
  %5 = load i32, ptr %b.addr, align 4
  %conv3 = zext i32 %5 to i64
  store ptr %instructionInterval_2, ptr %this.addr.i, align 8
  store i64 %conv3, ptr %idx.addr.i, align 8
  %this1.i = load ptr, ptr %this.addr.i, align 8
  store ptr %this1.i, ptr %this.addr.i24, align 8
  %this1.i25 = load ptr, ptr %this.addr.i24, align 8
  %6 = load ptr, ptr %this1.i25, align 8
  %7 = load i64, ptr %idx.addr.i, align 8
  %arrayidx.i = getelementptr inbounds %"struct.hermes::Interval", ptr %6, i64 %7
  store ptr %arrayidx.i, ptr %bInterval, align 8
  %8 = load ptr, ptr %bInterval, align 8
  %call5 = call noundef i64 @_ZNK6hermes8Interval3endEv(ptr noundef nonnull align 8 dereferenceable(48) %8)
  %9 = load ptr, ptr %aInterval, align 8
  %call6 = call noundef i64 @_ZNK6hermes8Interval3endEv(ptr noundef nonnull align 8 dereferenceable(48) %9)
  %cmp = icmp eq i64 %call5, %call6
  br i1 %cmp, label %if.then, label %if.end

if.then:                                          ; preds = %entry
  %10 = load ptr, ptr %bInterval, align 8
  %call7 = call noundef i64 @_ZNK6hermes8Interval5startEv(ptr noundef nonnull align 8 dereferenceable(48) %10)
  %11 = load ptr, ptr %aInterval, align 8
  %call8 = call noundef i64 @_ZNK6hermes8Interval5startEv(ptr noundef nonnull align 8 dereferenceable(48) %11)
  %cmp9 = icmp ugt i64 %call7, %call8
  br i1 %cmp9, label %lor.end, label %lor.rhs

lor.rhs:                                          ; preds = %if.then
  %12 = load ptr, ptr %bInterval, align 8
  %call10 = call noundef i64 @_ZNK6hermes8Interval5startEv(ptr noundef nonnull align 8 dereferenceable(48) %12)
  %13 = load ptr, ptr %aInterval, align 8
  %call11 = call noundef i64 @_ZNK6hermes8Interval5startEv(ptr noundef nonnull align 8 dereferenceable(48) %13)
  %cmp12 = icmp eq i64 %call10, %call11
  br i1 %cmp12, label %land.rhs, label %land.end

land.rhs:                                         ; preds = %lor.rhs
  %14 = load i32, ptr %b.addr, align 4
  %15 = load i32, ptr %a.addr, align 4
  %cmp13 = icmp ugt i32 %14, %15
  br label %land.end

land.end:                                         ; preds = %land.rhs, %lor.rhs
  %16 = phi i1 [ false, %lor.rhs ], [ %cmp13, %land.rhs ]
  br label %lor.end

lor.end:                                          ; preds = %land.end, %if.then
  %17 = phi i1 [ true, %if.then ], [ %16, %land.end ]
  store i1 %17, ptr %retval, align 1
  br label %return

if.end:                                           ; preds = %entry
  %18 = load ptr, ptr %bInterval, align 8
  %call14 = call noundef i64 @_ZNK6hermes8Interval3endEv(ptr noundef nonnull align 8 dereferenceable(48) %18)
  %19 = load ptr, ptr %aInterval, align 8
  %call15 = call noundef i64 @_ZNK6hermes8Interval3endEv(ptr noundef nonnull align 8 dereferenceable(48) %19)
  %cmp16 = icmp ugt i64 %call14, %call15
  store i1 %cmp16, ptr %retval, align 1
  br label %return

return:                                           ; preds = %if.end, %lor.end
  %20 = load i1, ptr %retval, align 1
  ret i1 %20
}