; Function Attrs: mustprogress nofree norecurse nosync nounwind willreturn memory(read, inaccessiblemem: none) uwtable
define internal fastcc noundef zeroext i1 @"_ZZN6hermes17RegisterAllocator8allocateEN4llvh8ArrayRefIPNS_10BasicBlockEEEENK3$_0clEjj"(ptr nocapture readonly %this.0.val.328.val, i32 noundef %a, i32 noundef %b) unnamed_addr #2 align 2 {
entry:
  %conv = zext i32 %a to i64
  %arrayidx.i21 = getelementptr inbounds %"struct.hermes::Interval", ptr %this.0.val.328.val, i64 %conv
  %conv3 = zext i32 %b to i64
  %arrayidx.i = getelementptr inbounds %"struct.hermes::Interval", ptr %this.0.val.328.val, i64 %conv3
  %0 = load ptr, ptr %arrayidx.i, align 8
  %end_.i = getelementptr inbounds i8, ptr %0, i64 8
  %1 = load i64, ptr %end_.i, align 8
  %Size.i.i = getelementptr inbounds i8, ptr %arrayidx.i, i64 8
  %2 = load i32, ptr %Size.i.i, align 8
  %conv.i.i = zext i32 %2 to i64
  %add.ptr.i.i = getelementptr inbounds %"struct.hermes::Segment", ptr %0, i64 %conv.i.i
  %cmp.not7.i = icmp eq i32 %2, 0
  br i1 %cmp.not7.i, label %_ZNK6hermes8Interval3endEv.exit, label %for.body.i

for.body.i:                                       ; preds = %entry, %for.body.i
  %__begin2.09.i = phi ptr [ %incdec.ptr.i, %for.body.i ], [ %0, %entry ]
  %start.08.i = phi i64 [ %.sroa.speculated.i, %for.body.i ], [ %1, %entry ]
  %end_5.i = getelementptr inbounds i8, ptr %__begin2.09.i, i64 8
  %3 = load i64, ptr %end_5.i, align 8
  %.sroa.speculated.i = tail call i64 @llvm.umax.i64(i64 %start.08.i, i64 %3)
  %incdec.ptr.i = getelementptr inbounds i8, ptr %__begin2.09.i, i64 16
  %cmp.not.i = icmp eq ptr %incdec.ptr.i, %add.ptr.i.i
  br i1 %cmp.not.i, label %_ZNK6hermes8Interval3endEv.exit, label %for.body.i

_ZNK6hermes8Interval3endEv.exit:                  ; preds = %for.body.i, %entry
  %start.0.lcssa.i = phi i64 [ %1, %entry ], [ %.sroa.speculated.i, %for.body.i ]
  %4 = load ptr, ptr %arrayidx.i21, align 8
  %end_.i9 = getelementptr inbounds i8, ptr %4, i64 8
  %5 = load i64, ptr %end_.i9, align 8
  %Size.i.i10 = getelementptr inbounds i8, ptr %arrayidx.i21, i64 8
  %6 = load i32, ptr %Size.i.i10, align 8
  %conv.i.i11 = zext i32 %6 to i64
  %add.ptr.i.i12 = getelementptr inbounds %"struct.hermes::Segment", ptr %4, i64 %conv.i.i11
  %cmp.not7.i13 = icmp eq i32 %6, 0
  br i1 %cmp.not7.i13, label %_ZNK6hermes8Interval3endEv.exit22, label %for.body.i14

for.body.i14:                                     ; preds = %_ZNK6hermes8Interval3endEv.exit, %for.body.i14
  %__begin2.09.i15 = phi ptr [ %incdec.ptr.i19, %for.body.i14 ], [ %4, %_ZNK6hermes8Interval3endEv.exit ]
  %start.08.i16 = phi i64 [ %.sroa.speculated.i18, %for.body.i14 ], [ %5, %_ZNK6hermes8Interval3endEv.exit ]
  %end_5.i17 = getelementptr inbounds i8, ptr %__begin2.09.i15, i64 8
  %7 = load i64, ptr %end_5.i17, align 8
  %.sroa.speculated.i18 = tail call i64 @llvm.umax.i64(i64 %start.08.i16, i64 %7)
  %incdec.ptr.i19 = getelementptr inbounds i8, ptr %__begin2.09.i15, i64 16
  %cmp.not.i20 = icmp eq ptr %incdec.ptr.i19, %add.ptr.i.i12
  br i1 %cmp.not.i20, label %_ZNK6hermes8Interval3endEv.exit22, label %for.body.i14

_ZNK6hermes8Interval3endEv.exit22:                ; preds = %for.body.i14, %_ZNK6hermes8Interval3endEv.exit
  %start.0.lcssa.i21 = phi i64 [ %5, %_ZNK6hermes8Interval3endEv.exit ], [ %.sroa.speculated.i18, %for.body.i14 ]
  %cmp = icmp eq i64 %start.0.lcssa.i, %start.0.lcssa.i21
  br i1 %cmp, label %if.then, label %if.end

if.then:                                          ; preds = %_ZNK6hermes8Interval3endEv.exit22
  %8 = load i64, ptr %0, align 8
  br i1 %cmp.not7.i, label %_ZNK6hermes8Interval5startEv.exit, label %for.body.i27

for.body.i27:                                     ; preds = %if.then, %for.body.i27
  %__begin2.09.i28 = phi ptr [ %incdec.ptr.i31, %for.body.i27 ], [ %0, %if.then ]
  %start.08.i29 = phi i64 [ %.sroa.speculated.i30, %for.body.i27 ], [ %8, %if.then ]
  %9 = load i64, ptr %__begin2.09.i28, align 8
  %.sroa.speculated.i30 = tail call i64 @llvm.umin.i64(i64 %9, i64 %start.08.i29)
  %incdec.ptr.i31 = getelementptr inbounds i8, ptr %__begin2.09.i28, i64 16
  %cmp.not.i32 = icmp eq ptr %incdec.ptr.i31, %add.ptr.i.i
  br i1 %cmp.not.i32, label %_ZNK6hermes8Interval5startEv.exit, label %for.body.i27

_ZNK6hermes8Interval5startEv.exit:                ; preds = %for.body.i27, %if.then
  %start.0.lcssa.i33 = phi i64 [ %8, %if.then ], [ %.sroa.speculated.i30, %for.body.i27 ]
  %10 = load i64, ptr %4, align 8
  br i1 %cmp.not7.i13, label %_ZNK6hermes8Interval5startEv.exit45, label %for.body.i38

for.body.i38:                                     ; preds = %_ZNK6hermes8Interval5startEv.exit, %for.body.i38
  %__begin2.09.i39 = phi ptr [ %incdec.ptr.i42, %for.body.i38 ], [ %4, %_ZNK6hermes8Interval5startEv.exit ]
  %start.08.i40 = phi i64 [ %.sroa.speculated.i41, %for.body.i38 ], [ %10, %_ZNK6hermes8Interval5startEv.exit ]
  %11 = load i64, ptr %__begin2.09.i39, align 8
  %.sroa.speculated.i41 = tail call i64 @llvm.umin.i64(i64 %11, i64 %start.08.i40)
  %incdec.ptr.i42 = getelementptr inbounds i8, ptr %__begin2.09.i39, i64 16
  %cmp.not.i43 = icmp eq ptr %incdec.ptr.i42, %add.ptr.i.i12
  br i1 %cmp.not.i43, label %_ZNK6hermes8Interval5startEv.exit45, label %for.body.i38

_ZNK6hermes8Interval5startEv.exit45:              ; preds = %for.body.i38, %_ZNK6hermes8Interval5startEv.exit
  %start.0.lcssa.i44 = phi i64 [ %10, %_ZNK6hermes8Interval5startEv.exit ], [ %.sroa.speculated.i41, %for.body.i38 ]
  %cmp9 = icmp ugt i64 %start.0.lcssa.i33, %start.0.lcssa.i44
  br i1 %cmp9, label %return, label %lor.rhs

lor.rhs:                                          ; preds = %_ZNK6hermes8Interval5startEv.exit45
  br i1 %cmp.not7.i, label %_ZNK6hermes8Interval5startEv.exit57, label %for.body.i50

for.body.i50:                                     ; preds = %lor.rhs, %for.body.i50
  %__begin2.09.i51 = phi ptr [ %incdec.ptr.i54, %for.body.i50 ], [ %0, %lor.rhs ]
  %start.08.i52 = phi i64 [ %.sroa.speculated.i53, %for.body.i50 ], [ %8, %lor.rhs ]
  %12 = load i64, ptr %__begin2.09.i51, align 8
  %.sroa.speculated.i53 = tail call i64 @llvm.umin.i64(i64 %12, i64 %start.08.i52)
  %incdec.ptr.i54 = getelementptr inbounds i8, ptr %__begin2.09.i51, i64 16
  %cmp.not.i55 = icmp eq ptr %incdec.ptr.i54, %add.ptr.i.i
  br i1 %cmp.not.i55, label %_ZNK6hermes8Interval5startEv.exit57, label %for.body.i50

_ZNK6hermes8Interval5startEv.exit57:              ; preds = %for.body.i50, %lor.rhs
  %start.0.lcssa.i56 = phi i64 [ %8, %lor.rhs ], [ %.sroa.speculated.i53, %for.body.i50 ]
  br i1 %cmp.not7.i13, label %_ZNK6hermes8Interval5startEv.exit69, label %for.body.i62

for.body.i62:                                     ; preds = %_ZNK6hermes8Interval5startEv.exit57, %for.body.i62
  %__begin2.09.i63 = phi ptr [ %incdec.ptr.i66, %for.body.i62 ], [ %4, %_ZNK6hermes8Interval5startEv.exit57 ]
  %start.08.i64 = phi i64 [ %.sroa.speculated.i65, %for.body.i62 ], [ %10, %_ZNK6hermes8Interval5startEv.exit57 ]
  %13 = load i64, ptr %__begin2.09.i63, align 8
  %.sroa.speculated.i65 = tail call i64 @llvm.umin.i64(i64 %13, i64 %start.08.i64)
  %incdec.ptr.i66 = getelementptr inbounds i8, ptr %__begin2.09.i63, i64 16
  %cmp.not.i67 = icmp eq ptr %incdec.ptr.i66, %add.ptr.i.i12
  br i1 %cmp.not.i67, label %_ZNK6hermes8Interval5startEv.exit69, label %for.body.i62

_ZNK6hermes8Interval5startEv.exit69:              ; preds = %for.body.i62, %_ZNK6hermes8Interval5startEv.exit57
  %start.0.lcssa.i68 = phi i64 [ %10, %_ZNK6hermes8Interval5startEv.exit57 ], [ %.sroa.speculated.i65, %for.body.i62 ]
  %cmp12 = icmp eq i64 %start.0.lcssa.i56, %start.0.lcssa.i68
  %cmp13 = icmp ugt i32 %b, %a
  %14 = and i1 %cmp13, %cmp12
  br label %return

if.end:                                           ; preds = %_ZNK6hermes8Interval3endEv.exit22
  br i1 %cmp.not7.i, label %_ZNK6hermes8Interval3endEv.exit83, label %for.body.i75

for.body.i75:                                     ; preds = %if.end, %for.body.i75
  %__begin2.09.i76 = phi ptr [ %incdec.ptr.i80, %for.body.i75 ], [ %0, %if.end ]
  %start.08.i77 = phi i64 [ %.sroa.speculated.i79, %for.body.i75 ], [ %1, %if.end ]
  %end_5.i78 = getelementptr inbounds i8, ptr %__begin2.09.i76, i64 8
  %15 = load i64, ptr %end_5.i78, align 8
  %.sroa.speculated.i79 = tail call i64 @llvm.umax.i64(i64 %start.08.i77, i64 %15)
  %incdec.ptr.i80 = getelementptr inbounds i8, ptr %__begin2.09.i76, i64 16
  %cmp.not.i81 = icmp eq ptr %incdec.ptr.i80, %add.ptr.i.i
  br i1 %cmp.not.i81, label %_ZNK6hermes8Interval3endEv.exit83, label %for.body.i75

_ZNK6hermes8Interval3endEv.exit83:                ; preds = %for.body.i75, %if.end
  %start.0.lcssa.i82 = phi i64 [ %1, %if.end ], [ %.sroa.speculated.i79, %for.body.i75 ]
  br i1 %cmp.not7.i13, label %_ZNK6hermes8Interval3endEv.exit97, label %for.body.i89

for.body.i89:                                     ; preds = %_ZNK6hermes8Interval3endEv.exit83, %for.body.i89
  %__begin2.09.i90 = phi ptr [ %incdec.ptr.i94, %for.body.i89 ], [ %4, %_ZNK6hermes8Interval3endEv.exit83 ]
  %start.08.i91 = phi i64 [ %.sroa.speculated.i93, %for.body.i89 ], [ %5, %_ZNK6hermes8Interval3endEv.exit83 ]
  %end_5.i92 = getelementptr inbounds i8, ptr %__begin2.09.i90, i64 8
  %16 = load i64, ptr %end_5.i92, align 8
  %.sroa.speculated.i93 = tail call i64 @llvm.umax.i64(i64 %start.08.i91, i64 %16)
  %incdec.ptr.i94 = getelementptr inbounds i8, ptr %__begin2.09.i90, i64 16
  %cmp.not.i95 = icmp eq ptr %incdec.ptr.i94, %add.ptr.i.i12
  br i1 %cmp.not.i95, label %_ZNK6hermes8Interval3endEv.exit97, label %for.body.i89

_ZNK6hermes8Interval3endEv.exit97:                ; preds = %for.body.i89, %_ZNK6hermes8Interval3endEv.exit83
  %start.0.lcssa.i96 = phi i64 [ %5, %_ZNK6hermes8Interval3endEv.exit83 ], [ %.sroa.speculated.i93, %for.body.i89 ]
  %cmp16 = icmp ugt i64 %start.0.lcssa.i82, %start.0.lcssa.i96
  br label %return

return:                                           ; preds = %_ZNK6hermes8Interval5startEv.exit45, %_ZNK6hermes8Interval5startEv.exit69, %_ZNK6hermes8Interval3endEv.exit97
  %retval.0 = phi i1 [ %cmp16, %_ZNK6hermes8Interval3endEv.exit97 ], [ true, %_ZNK6hermes8Interval5startEv.exit45 ], [ %14, %_ZNK6hermes8Interval5startEv.exit69 ]
  ret i1 %retval.0
}